#include <math.h>
#include <stdio.h>
#include <stdlib.h>
#include <string.h>


void main()
{
	int n,i,l,a[100]={0},k=0;
	scanf("%d",&n);
	a[0]=1;
	for (l=0;l<n;l++)
	{
		for (i=0;i<=k;i++)
		  a[i]*=2;
		for (i=0;i<=k;i++)
		{
			a[i+1]+=a[i]/10;
			a[i]=a[i]%10;
		}
		if (a[k+1]!=0) k++;
	}
	for (i=k;i>=0;i--)
		printf("%d",a[i]);
	printf("\n");
}